target datalayout = "e-m:e-p270:32:32-p271:32:32-p272:64:64-i64:64-i128:128-f80:128-n8:16:32:64-S128"
target triple = "x86_64-pc-linux-gnu"

@H5tools_ERR_STACK_g = global i64 -1, align 8
@H5tools_ERR_CLS_g = global i64 -1, align 8
@H5E_tools_g = global i64 -1, align 8
@H5E_tools_min_id_g = global i64 -1, align 8
@enable_error_stack = global i32 0, align 4
@stderr = external global ptr, align 8
@.str.31 = private unnamed_addr constant [2 x i8] c"\0A\00", align 1
@.str.47 = private unnamed_addr constant [107 x i8] c"generated/home/dtcxzyw/WorkSpace/Projects/compilers/llvm-opt-benchmark/bench/hdf5/hdf5/tools/lib/h5tools.c\00", align 1
@H5_libinit_g = external global i8, align 1
@H5_libterm_g = external global i8, align 1
@__func__.h5tools_get_new_fapl = private unnamed_addr constant [21 x i8] c"h5tools_get_new_fapl\00", align 1
@.str.76 = private unnamed_addr constant [13 x i8] c"invalid FAPL\00", align 1
@H5P_CLS_FILE_ACCESS_ID_g = external global i64, align 8
@.str.77 = private unnamed_addr constant [17 x i8] c"H5Pcreate failed\00", align 1
@.str.78 = private unnamed_addr constant [15 x i8] c"H5Pcopy failed\00", align 1

; Function Attrs: nounwind uwtable
define i64 @h5tools_get_new_fapl(i64 noundef %0) #0 {
  %2 = alloca i64, align 8
  %3 = alloca i64, align 8
  %4 = alloca i64, align 8
  store i64 %0, ptr %2, align 8, !tbaa !7
  call void @llvm.lifetime.start.p0(i64 8, ptr %3) #10
  store i64 -1, ptr %3, align 8, !tbaa !7
  call void @llvm.lifetime.start.p0(i64 8, ptr %4) #10
  store i64 -1, ptr %4, align 8, !tbaa !7
  %5 = load i64, ptr %2, align 8, !tbaa !7
  %6 = icmp slt i64 %5, 0
  br i1 %6, label %7, label %38

7:                                                ; preds = %1
  br label %8

8:                                                ; preds = %7
  br label %9

9:                                                ; preds = %8
  %10 = load i32, ptr @enable_error_stack, align 4, !tbaa !3
  %11 = icmp sgt i32 %10, 0
  br i1 %11, label %12, label %30

12:                                               ; preds = %9
  %13 = load i64, ptr @H5tools_ERR_STACK_g, align 8, !tbaa !7
  %14 = icmp sge i64 %13, 0
  br i1 %14, label %15, label %24

15:                                               ; preds = %12
  %16 = load i64, ptr @H5tools_ERR_CLS_g, align 8, !tbaa !7
  %17 = icmp sge i64 %16, 0
  br i1 %17, label %18, label %24

18:                                               ; preds = %15
  %19 = load i64, ptr @H5tools_ERR_STACK_g, align 8, !tbaa !7
  %20 = load i64, ptr @H5tools_ERR_CLS_g, align 8, !tbaa !7
  %21 = load i64, ptr @H5E_tools_g, align 8, !tbaa !7
  %22 = load i64, ptr @H5E_tools_min_id_g, align 8, !tbaa !7
  %23 = call i32 (i64, ptr, ptr, i32, i64, i64, i64, ptr, ...) @H5Epush2(i64 noundef %19, ptr noundef @.str.47, ptr noundef @__func__.h5tools_get_new_fapl, i32 noundef 758, i64 noundef %20, i64 noundef %21, i64 noundef %22, ptr noundef @.str.76)
  br label %29

24:                                               ; preds = %15, %12
  %25 = load ptr, ptr @stderr, align 8, !tbaa !9
  %26 = call i32 (ptr, ptr, ...) @fprintf(ptr noundef %25, ptr noundef @.str.76) #10
  %27 = load ptr, ptr @stderr, align 8, !tbaa !9
  %28 = call i32 (ptr, ptr, ...) @fprintf(ptr noundef %27, ptr noundef @.str.31) #10
  br label %29

29:                                               ; preds = %24, %18
  br label %30

30:                                               ; preds = %29, %9
  br label %31

31:                                               ; preds = %30
  br label %32

32:                                               ; preds = %31
  br label %33

33:                                               ; preds = %32
  store i64 -1, ptr %4, align 8, !tbaa !7
  br label %133

34:                                               ; No predecessors!
  br label %35

35:                                               ; preds = %34
  br label %36

36:                                               ; preds = %35
  br label %37

37:                                               ; preds = %36
  br label %38

38:                                               ; preds = %37, %1
  %39 = load i64, ptr %2, align 8, !tbaa !7
  %40 = icmp eq i64 0, %39
  br i1 %40, label %41, label %95

41:                                               ; preds = %38
  %42 = load i8, ptr @H5_libinit_g, align 1, !tbaa !27, !range !29, !noundef !30
  %43 = trunc i8 %42 to i1
  br i1 %43, label %48, label %44

44:                                               ; preds = %41
  %45 = load i8, ptr @H5_libterm_g, align 1, !tbaa !27, !range !29, !noundef !30
  %46 = trunc i8 %45 to i1
  %47 = xor i1 %46, true
  br label %48

48:                                               ; preds = %44, %41
  %49 = phi i1 [ false, %41 ], [ %47, %44 ]
  %50 = xor i1 %49, true
  %51 = xor i1 %50, true
  %52 = zext i1 %51 to i32
  %53 = sext i32 %52 to i64
  %54 = call i64 @llvm.expect.i64(i64 %53, i64 0)
  %55 = icmp ne i64 %54, 0
  br i1 %55, label %56, label %58

56:                                               ; preds = %48
  %57 = call i32 @H5open()
  br label %59

58:                                               ; preds = %48
  br label %59

59:                                               ; preds = %58, %56
  %60 = load i64, ptr @H5P_CLS_FILE_ACCESS_ID_g, align 8, !tbaa !7
  %61 = call i64 @H5Pcreate(i64 noundef %60)
  store i64 %61, ptr %3, align 8, !tbaa !7
  %62 = icmp slt i64 %61, 0
  br i1 %62, label %63, label %94

63:                                               ; preds = %59
  br label %64

64:                                               ; preds = %63
  br label %65

65:                                               ; preds = %64
  %66 = load i32, ptr @enable_error_stack, align 4, !tbaa !3
  %67 = icmp sgt i32 %66, 0
  br i1 %67, label %68, label %86

68:                                               ; preds = %65
  %69 = load i64, ptr @H5tools_ERR_STACK_g, align 8, !tbaa !7
  %70 = icmp sge i64 %69, 0
  br i1 %70, label %71, label %80

71:                                               ; preds = %68
  %72 = load i64, ptr @H5tools_ERR_CLS_g, align 8, !tbaa !7
  %73 = icmp sge i64 %72, 0
  br i1 %73, label %74, label %80

74:                                               ; preds = %71
  %75 = load i64, ptr @H5tools_ERR_STACK_g, align 8, !tbaa !7
  %76 = load i64, ptr @H5tools_ERR_CLS_g, align 8, !tbaa !7
  %77 = load i64, ptr @H5E_tools_g, align 8, !tbaa !7
  %78 = load i64, ptr @H5E_tools_min_id_g, align 8, !tbaa !7
  %79 = call i32 (i64, ptr, ptr, i32, i64, i64, i64, ptr, ...) @H5Epush2(i64 noundef %75, ptr noundef @.str.47, ptr noundef @__func__.h5tools_get_new_fapl, i32 noundef 763, i64 noundef %76, i64 noundef %77, i64 noundef %78, ptr noundef @.str.77)
  br label %85

80:                                               ; preds = %71, %68
  %81 = load ptr, ptr @stderr, align 8, !tbaa !9
  %82 = call i32 (ptr, ptr, ...) @fprintf(ptr noundef %81, ptr noundef @.str.77) #10
  %83 = load ptr, ptr @stderr, align 8, !tbaa !9
  %84 = call i32 (ptr, ptr, ...) @fprintf(ptr noundef %83, ptr noundef @.str.31) #10
  br label %85

85:                                               ; preds = %80, %74
  br label %86

86:                                               ; preds = %85, %65
  br label %87

87:                                               ; preds = %86
  br label %88

88:                                               ; preds = %87
  br label %89

89:                                               ; preds = %88
  store i64 -1, ptr %4, align 8, !tbaa !7
  br label %133

90:                                               ; No predecessors!
  br label %91

91:                                               ; preds = %90
  br label %92

92:                                               ; preds = %91
  br label %93

93:                                               ; preds = %92
  br label %94

94:                                               ; preds = %93, %59
  br label %131

95:                                               ; preds = %38
  %96 = load i64, ptr %2, align 8, !tbaa !7
  %97 = call i64 @H5Pcopy(i64 noundef %96)
  store i64 %97, ptr %3, align 8, !tbaa !7
  %98 = icmp slt i64 %97, 0
  br i1 %98, label %99, label %130

99:                                               ; preds = %95
  br label %100

100:                                              ; preds = %99
  br label %101

101:                                              ; preds = %100
  %102 = load i32, ptr @enable_error_stack, align 4, !tbaa !3
  %103 = icmp sgt i32 %102, 0
  br i1 %103, label %104, label %122

104:                                              ; preds = %101
  %105 = load i64, ptr @H5tools_ERR_STACK_g, align 8, !tbaa !7
  %106 = icmp sge i64 %105, 0
  br i1 %106, label %107, label %116

107:                                              ; preds = %104
  %108 = load i64, ptr @H5tools_ERR_CLS_g, align 8, !tbaa !7
  %109 = icmp sge i64 %108, 0
  br i1 %109, label %110, label %116

110:                                              ; preds = %107
  %111 = load i64, ptr @H5tools_ERR_STACK_g, align 8, !tbaa !7
  %112 = load i64, ptr @H5tools_ERR_CLS_g, align 8, !tbaa !7
  %113 = load i64, ptr @H5E_tools_g, align 8, !tbaa !7
  %114 = load i64, ptr @H5E_tools_min_id_g, align 8, !tbaa !7
  %115 = call i32 (i64, ptr, ptr, i32, i64, i64, i64, ptr, ...) @H5Epush2(i64 noundef %111, ptr noundef @.str.47, ptr noundef @__func__.h5tools_get_new_fapl, i32 noundef 767, i64 noundef %112, i64 noundef %113, i64 noundef %114, ptr noundef @.str.78)
  br label %121

116:                                              ; preds = %107, %104
  %117 = load ptr, ptr @stderr, align 8, !tbaa !9
  %118 = call i32 (ptr, ptr, ...) @fprintf(ptr noundef %117, ptr noundef @.str.78) #10
  %119 = load ptr, ptr @stderr, align 8, !tbaa !9
  %120 = call i32 (ptr, ptr, ...) @fprintf(ptr noundef %119, ptr noundef @.str.31) #10
  br label %121

121:                                              ; preds = %116, %110
  br label %122

122:                                              ; preds = %121, %101
  br label %123

123:                                              ; preds = %122
  br label %124

124:                                              ; preds = %123
  br label %125

125:                                              ; preds = %124
  store i64 -1, ptr %4, align 8, !tbaa !7
  br label %133

126:                                              ; No predecessors!
  br label %127

127:                                              ; preds = %126
  br label %128

128:                                              ; preds = %127
  br label %129

129:                                              ; preds = %128
  br label %130

130:                                              ; preds = %129, %95
  br label %131

131:                                              ; preds = %130, %94
  %132 = load i64, ptr %3, align 8, !tbaa !7
  store i64 %132, ptr %4, align 8, !tbaa !7
  br label %133

133:                                              ; preds = %131, %125, %89, %33
  %134 = load i64, ptr %4, align 8, !tbaa !7
  %135 = icmp slt i64 %134, 0
  br i1 %135, label %136, label %152

136:                                              ; preds = %133
  %137 = load i64, ptr %3, align 8, !tbaa !7
  %138 = icmp sge i64 %137, 0
  br i1 %138, label %139, label %142

139:                                              ; preds = %136
  %140 = load i64, ptr %3, align 8, !tbaa !7
  %141 = call i32 @H5Pclose(i64 noundef %140)
  store i64 -1, ptr %3, align 8, !tbaa !7
  br label %142

142:                                              ; preds = %139, %136
  %143 = load i64, ptr @H5tools_ERR_STACK_g, align 8, !tbaa !7
  %144 = icmp sge i64 %143, 0
  br i1 %144, label %145, label %151

145:                                              ; preds = %142
  %146 = load i32, ptr @enable_error_stack, align 4, !tbaa !3
  %147 = icmp sle i32 %146, 1
  br i1 %147, label %148, label %151

148:                                              ; preds = %145
  %149 = load i64, ptr @H5tools_ERR_STACK_g, align 8, !tbaa !7
  %150 = call i32 @H5Epop(i64 noundef %149, i64 noundef 1)
  br label %151

151:                                              ; preds = %148, %145, %142
  br label %152

152:                                              ; preds = %151, %133
  %153 = load i64, ptr %4, align 8, !tbaa !7
  call void @llvm.lifetime.end.p0(i64 8, ptr %4) #10
  call void @llvm.lifetime.end.p0(i64 8, ptr %3) #10
  ret i64 %153
}