; Function Attrs: nounwind uwtable
define range(i64 -1, -9223372036854775808) i64 @h5tools_get_new_fapl(i64 noundef %0) local_unnamed_addr #0 {
  %2 = icmp slt i64 %0, 0
  br i1 %2, label %3, label %19

3:                                                ; preds = %1
  %4 = load i32, ptr @enable_error_stack, align 4, !tbaa !3
  %5 = icmp sgt i32 %4, 0
  br i1 %5, label %6, label %68

6:                                                ; preds = %3
  %7 = load i64, ptr @H5tools_ERR_STACK_g, align 8, !tbaa !7
  %8 = icmp sgt i64 %7, -1
  %9 = load i64, ptr @H5tools_ERR_CLS_g, align 8
  %10 = icmp sgt i64 %9, -1
  %or.cond = select i1 %8, i1 %10, i1 false
  br i1 %or.cond, label %11, label %15

11:                                               ; preds = %6
  %12 = load i64, ptr @H5E_tools_g, align 8, !tbaa !7
  %13 = load i64, ptr @H5E_tools_min_id_g, align 8, !tbaa !7
  %14 = tail call i32 (i64, ptr, ptr, i32, i64, i64, i64, ptr, ...) @H5Epush2(i64 noundef %7, ptr noundef nonnull @.str.47, ptr noundef nonnull @__func__.h5tools_get_new_fapl, i32 noundef 758, i64 noundef %9, i64 noundef %12, i64 noundef %13, ptr noundef nonnull @.str.76) #16
  br label %68

15:                                               ; preds = %6
  %16 = load ptr, ptr @stderr, align 8, !tbaa !9
  %17 = tail call i64 @fwrite(ptr nonnull @.str.76, i64 12, i64 1, ptr %16) #17
  %18 = load ptr, ptr @stderr, align 8, !tbaa !9
  %fputc29 = tail call i32 @fputc(i32 10, ptr %18)
  br label %68

19:                                               ; preds = %1
  %20 = icmp eq i64 %0, 0
  br i1 %20, label %21, label %49

21:                                               ; preds = %19
  %22 = load i8, ptr @H5_libinit_g, align 1, !tbaa !21, !range !23, !noundef !24
  %23 = trunc nuw i8 %22 to i1
  %24 = load i8, ptr @H5_libterm_g, align 1, !range !23
  %25 = trunc nuw i8 %24 to i1
  %26 = select i1 %23, i1 true, i1 %25
  br i1 %26, label %29, label %27, !prof !25

27:                                               ; preds = %21
  %28 = tail call i32 @H5open() #16
  br label %29

29:                                               ; preds = %21, %27
  %30 = load i64, ptr @H5P_CLS_FILE_ACCESS_ID_g, align 8, !tbaa !7
  %31 = tail call i64 @H5Pcreate(i64 noundef %30) #16
  %32 = icmp slt i64 %31, 0
  br i1 %32, label %33, label %75

33:                                               ; preds = %29
  %34 = load i32, ptr @enable_error_stack, align 4, !tbaa !3
  %35 = icmp sgt i32 %34, 0
  br i1 %35, label %36, label %68

36:                                               ; preds = %33
  %37 = load i64, ptr @H5tools_ERR_STACK_g, align 8, !tbaa !7
  %38 = icmp sgt i64 %37, -1
  %39 = load i64, ptr @H5tools_ERR_CLS_g, align 8
  %40 = icmp sgt i64 %39, -1
  %or.cond3 = select i1 %38, i1 %40, i1 false
  br i1 %or.cond3, label %41, label %45

41:                                               ; preds = %36
  %42 = load i64, ptr @H5E_tools_g, align 8, !tbaa !7
  %43 = load i64, ptr @H5E_tools_min_id_g, align 8, !tbaa !7
  %44 = tail call i32 (i64, ptr, ptr, i32, i64, i64, i64, ptr, ...) @H5Epush2(i64 noundef %37, ptr noundef nonnull @.str.47, ptr noundef nonnull @__func__.h5tools_get_new_fapl, i32 noundef 763, i64 noundef %39, i64 noundef %42, i64 noundef %43, ptr noundef nonnull @.str.77) #16
  br label %68

45:                                               ; preds = %36
  %46 = load ptr, ptr @stderr, align 8, !tbaa !9
  %47 = tail call i64 @fwrite(ptr nonnull @.str.77, i64 16, i64 1, ptr %46) #17
  %48 = load ptr, ptr @stderr, align 8, !tbaa !9
  %fputc28 = tail call i32 @fputc(i32 10, ptr %48)
  br label %68

49:                                               ; preds = %19
  %50 = tail call i64 @H5Pcopy(i64 noundef %0) #16
  %51 = icmp slt i64 %50, 0
  br i1 %51, label %52, label %75

52:                                               ; preds = %49
  %53 = load i32, ptr @enable_error_stack, align 4, !tbaa !3
  %54 = icmp sgt i32 %53, 0
  br i1 %54, label %55, label %68

55:                                               ; preds = %52
  %56 = load i64, ptr @H5tools_ERR_STACK_g, align 8, !tbaa !7
  %57 = icmp sgt i64 %56, -1
  %58 = load i64, ptr @H5tools_ERR_CLS_g, align 8
  %59 = icmp sgt i64 %58, -1
  %or.cond5 = select i1 %57, i1 %59, i1 false
  br i1 %or.cond5, label %60, label %64

60:                                               ; preds = %55
  %61 = load i64, ptr @H5E_tools_g, align 8, !tbaa !7
  %62 = load i64, ptr @H5E_tools_min_id_g, align 8, !tbaa !7
  %63 = tail call i32 (i64, ptr, ptr, i32, i64, i64, i64, ptr, ...) @H5Epush2(i64 noundef %56, ptr noundef nonnull @.str.47, ptr noundef nonnull @__func__.h5tools_get_new_fapl, i32 noundef 767, i64 noundef %58, i64 noundef %61, i64 noundef %62, ptr noundef nonnull @.str.78) #16
  br label %68

64:                                               ; preds = %55
  %65 = load ptr, ptr @stderr, align 8, !tbaa !9
  %66 = tail call i64 @fwrite(ptr nonnull @.str.78, i64 14, i64 1, ptr %65) #17
  %67 = load ptr, ptr @stderr, align 8, !tbaa !9
  %fputc = tail call i32 @fputc(i32 10, ptr %67)
  br label %68

68:                                               ; preds = %60, %64, %52, %41, %45, %33, %11, %15, %3
  %69 = load i64, ptr @H5tools_ERR_STACK_g, align 8, !tbaa !7
  %70 = icmp sgt i64 %69, -1
  %71 = load i32, ptr @enable_error_stack, align 4
  %72 = icmp slt i32 %71, 2
  %or.cond7 = select i1 %70, i1 %72, i1 false
  br i1 %or.cond7, label %73, label %75

73:                                               ; preds = %68
  %74 = tail call i32 @H5Epop(i64 noundef %69, i64 noundef 1) #16
  br label %75

75:                                               ; preds = %49, %29, %68, %73
  %.033 = phi i64 [ -1, %68 ], [ -1, %73 ], [ %31, %29 ], [ %50, %49 ]
  ret i64 %.033
}